; Function Attrs: nofree nounwind null_pointer_is_valid sspstrong memory(read, inaccessiblemem: none) uwtable
define hidden noundef ptr @uat_find(ptr noundef readonly captures(none) %0) local_unnamed_addr #8 {
  %2 = load ptr, ptr @all_uats, align 8
  %3 = getelementptr inbounds nuw i8, ptr %2, i64 8
  %4 = load i32, ptr %3, align 8
  %.not20 = icmp eq i32 %4, 0
  br i1 %.not20, label %.thread, label %.lr.ph

.lr.ph:                                           ; preds = %1
  %5 = load ptr, ptr %2, align 8
  %wide.trip.count = zext i32 %4 to i64
  br label %7

6:                                                ; preds = %13
  %indvars.iv.next = add nuw nsw i64 %indvars.iv, 1
  %exitcond.not = icmp eq i64 %indvars.iv.next, %wide.trip.count
  br i1 %exitcond.not, label %.thread, label %7, !llvm.loop !24

7:                                                ; preds = %.lr.ph, %6
  %indvars.iv = phi i64 [ 0, %.lr.ph ], [ %indvars.iv.next, %6 ]
  %8 = getelementptr ptr, ptr %5, i64 %indvars.iv
  %9 = load ptr, ptr %8, align 8
  %10 = load ptr, ptr %9, align 8
  %11 = tail call i32 @strcmp(ptr noundef %10, ptr noundef %0) #20
  %12 = icmp eq i32 %11, 0
  br i1 %12, label %.thread, label %13

13:                                               ; preds = %7
  %14 = getelementptr inbounds nuw i8, ptr %9, i64 16
  %15 = load ptr, ptr %14, align 8
  %16 = tail call i32 @strcmp(ptr noundef %15, ptr noundef %0) #20
  %.not = icmp eq i32 %16, 0
  br i1 %.not, label %.thread, label %6

.thread:                                          ; preds = %13, %6, %7, %1
  %.2 = phi ptr [ null, %1 ], [ %9, %7 ], [ null, %6 ], [ %9, %13 ]
  ret ptr %.2
}